; Function Attrs: mustprogress nofree norecurse nosync nounwind willreturn memory(argmem: read) uwtable
define noundef zeroext i1 @_Z34ir_coulomb_might_be_zero_at_cutoffPK10t_inputrec(ptr noundef readonly captures(none) %0) local_unnamed_addr #15 {
  %2 = getelementptr inbounds nuw i8, ptr %0, i64 36
  %3 = load i32, ptr %2, align 4, !tbaa !260
  %4 = icmp eq i32 %3, 0
  br i1 %4, label %_Z28ir_coulomb_is_zero_at_cutoffPK10t_inputrec.exit.thread, label %5

5:                                                ; preds = %1
  %6 = getelementptr inbounds nuw i8, ptr %0, i64 364
  %7 = load i32, ptr %6, align 4, !tbaa !258
  %switch.tableidx = add i32 %7, -7
  %8 = icmp ult i32 %switch.tableidx, 9
  br i1 %8, label %switch.hole_check, label %_Z19ir_coulomb_switchedPK10t_inputrec.exit.i

_Z19ir_coulomb_switchedPK10t_inputrec.exit.i:     ; preds = %switch.hole_check, %5
  %9 = getelementptr inbounds nuw i8, ptr %0, i64 368
  %10 = load i32, ptr %9, align 8, !tbaa !259
  switch i32 %10, label %_Z28ir_coulomb_is_zero_at_cutoffPK10t_inputrec.exit [
    i32 5, label %_Z28ir_coulomb_is_zero_at_cutoffPK10t_inputrec.exit.thread
    i32 3, label %_Z28ir_coulomb_is_zero_at_cutoffPK10t_inputrec.exit.thread
  ]

_Z28ir_coulomb_is_zero_at_cutoffPK10t_inputrec.exit: ; preds = %_Z19ir_coulomb_switchedPK10t_inputrec.exit.i
  %.not.i = icmp ne i32 %10, 2
  %11 = icmp eq i32 %7, 16
  %spec.select.i = or i1 %11, %.not.i
  br i1 %spec.select.i, label %_Z28ir_coulomb_is_zero_at_cutoffPK10t_inputrec.exit.thread, label %12

12:                                               ; preds = %_Z28ir_coulomb_is_zero_at_cutoffPK10t_inputrec.exit
  %13 = and i32 %7, -5
  %spec.select = icmp eq i32 %13, 9
  br label %_Z28ir_coulomb_is_zero_at_cutoffPK10t_inputrec.exit.thread

switch.hole_check:                                ; preds = %5
  %switch.maskindex = trunc nuw i32 %switch.tableidx to i16
  %switch.shifted = lshr i16 387, %switch.maskindex
  %switch.lobit = trunc i16 %switch.shifted to i1
  br i1 %switch.lobit, label %_Z28ir_coulomb_is_zero_at_cutoffPK10t_inputrec.exit.thread, label %_Z19ir_coulomb_switchedPK10t_inputrec.exit.i

_Z28ir_coulomb_is_zero_at_cutoffPK10t_inputrec.exit.thread: ; preds = %switch.hole_check, %1, %_Z19ir_coulomb_switchedPK10t_inputrec.exit.i, %_Z19ir_coulomb_switchedPK10t_inputrec.exit.i, %12, %_Z28ir_coulomb_is_zero_at_cutoffPK10t_inputrec.exit
  %14 = phi i1 [ true, %_Z28ir_coulomb_is_zero_at_cutoffPK10t_inputrec.exit ], [ %spec.select, %12 ], [ true, %_Z19ir_coulomb_switchedPK10t_inputrec.exit.i ], [ true, %_Z19ir_coulomb_switchedPK10t_inputrec.exit.i ], [ true, %1 ], [ true, %switch.hole_check ]
  ret i1 %14
}